target datalayout = "e-m:e-p270:32:32-p271:32:32-p272:64:64-i64:64-i128:128-f80:128-n8:16:32:64-S128"
target triple = "x86_64-unknown-linux-gnu"

%"class.llvh::StringRef" = type { ptr, i64 }
%"class.llvh::SmallVectorImpl" = type { %"class.llvh::SmallVectorTemplateBase" }
%"class.llvh::SmallVectorTemplateBase" = type { %"class.llvh::SmallVectorTemplateCommon" }
%"class.llvh::SmallVectorTemplateCommon" = type { %"class.llvh::SmallVectorBase" }
%"class.llvh::SmallVectorBase" = type { ptr, i32, i32 }
%"struct.llvh::AlignedCharArrayUnion" = type { %"struct.llvh::AlignedCharArray" }
%"struct.llvh::AlignedCharArray" = type { [1 x i8] }
%"class.llvh::SmallString.11" = type { %"class.llvh::SmallVector.12" }
%"class.llvh::SmallVector.12" = type { %"class.llvh::SmallVectorImpl", %"struct.llvh::SmallVectorStorage.13" }
%"struct.llvh::SmallVectorStorage.13" = type { [128 x %"struct.llvh::AlignedCharArrayUnion"] }
%"class.std::error_code" = type { i32, ptr }
%struct.stat = type { i64, i64, i64, i32, i32, i32, i32, i64, i64, i64, i64, %struct.timespec, %struct.timespec, %struct.timespec, [3 x i64] }
%struct.timespec = type { i64, i64 }

; Function Attrs: mustprogress nounwind uwtable
define linkonce_odr hidden void @_ZN4llvh15SmallVectorBaseC2EPvm(ptr noundef nonnull align 8 dereferenceable(16) %this, ptr noundef %FirstEl, i64 noundef %Capacity) unnamed_addr #0 comdat align 2 {
entry:
  %this.addr = alloca ptr, align 8
  %FirstEl.addr = alloca ptr, align 8
  %Capacity.addr = alloca i64, align 8
  store ptr %this, ptr %this.addr, align 8
  store ptr %FirstEl, ptr %FirstEl.addr, align 8
  store i64 %Capacity, ptr %Capacity.addr, align 8
  %this1 = load ptr, ptr %this.addr, align 8
  %BeginX = getelementptr inbounds %"class.llvh::SmallVectorBase", ptr %this1, i32 0, i32 0
  %0 = load ptr, ptr %FirstEl.addr, align 8
  store ptr %0, ptr %BeginX, align 8
  %Size = getelementptr inbounds %"class.llvh::SmallVectorBase", ptr %this1, i32 0, i32 1
  store i32 0, ptr %Size, align 8
  %Capacity2 = getelementptr inbounds %"class.llvh::SmallVectorBase", ptr %this1, i32 0, i32 2
  %1 = load i64, ptr %Capacity.addr, align 8
  %conv = trunc i64 %1 to i32
  store i32 %conv, ptr %Capacity2, align 4
  ret void
}

; Function Attrs: mustprogress nounwind uwtable
define linkonce_odr hidden noundef ptr @_ZNK4llvh25SmallVectorTemplateCommonIcvE10getFirstElEv(ptr noundef nonnull align 8 dereferenceable(16) %this) #0 comdat align 2 {
entry:
  %this.addr = alloca ptr, align 8
  store ptr %this, ptr %this.addr, align 8
  %this1 = load ptr, ptr %this.addr, align 8
  %add.ptr = getelementptr inbounds i8, ptr %this1, i64 16
  ret ptr %add.ptr
}

; Function Attrs: mustprogress nounwind uwtable
define linkonce_odr hidden void @_ZN4llvh25SmallVectorTemplateCommonIcvEC2Em(ptr noundef nonnull align 8 dereferenceable(16) %this, i64 noundef %Size) unnamed_addr #0 comdat align 2 {
entry:
  %this.addr = alloca ptr, align 8
  %Size.addr = alloca i64, align 8
  store ptr %this, ptr %this.addr, align 8
  store i64 %Size, ptr %Size.addr, align 8
  %this1 = load ptr, ptr %this.addr, align 8
  %call = call noundef ptr @_ZNK4llvh25SmallVectorTemplateCommonIcvE10getFirstElEv(ptr noundef nonnull align 8 dereferenceable(16) %this1)
  %0 = load i64, ptr %Size.addr, align 8
  call void @_ZN4llvh15SmallVectorBaseC2EPvm(ptr noundef nonnull align 8 dereferenceable(16) %this1, ptr noundef %call, i64 noundef %0)
  ret void
}

; Function Attrs: mustprogress nounwind uwtable
define linkonce_odr hidden noundef zeroext i1 @_ZNK4llvh25SmallVectorTemplateCommonIcvE7isSmallEv(ptr noundef nonnull align 8 dereferenceable(16) %this) #0 comdat align 2 {
entry:
  %this.addr = alloca ptr, align 8
  store ptr %this, ptr %this.addr, align 8
  %this1 = load ptr, ptr %this.addr, align 8
  %BeginX = getelementptr inbounds %"class.llvh::SmallVectorBase", ptr %this1, i32 0, i32 0
  %0 = load ptr, ptr %BeginX, align 8
  %call = call noundef ptr @_ZNK4llvh25SmallVectorTemplateCommonIcvE10getFirstElEv(ptr noundef nonnull align 8 dereferenceable(16) %this1)
  %cmp = icmp eq ptr %0, %call
  ret i1 %cmp
}

; Function Attrs: mustprogress nounwind uwtable
define linkonce_odr hidden void @_ZN4llvh23SmallVectorTemplateBaseIcLb1EEC2Em(ptr noundef nonnull align 8 dereferenceable(16) %this, i64 noundef %Size) unnamed_addr #0 comdat align 2 {
entry:
  %this.addr = alloca ptr, align 8
  %Size.addr = alloca i64, align 8
  store ptr %this, ptr %this.addr, align 8
  store i64 %Size, ptr %Size.addr, align 8
  %this1 = load ptr, ptr %this.addr, align 8
  %0 = load i64, ptr %Size.addr, align 8
  call void @_ZN4llvh25SmallVectorTemplateCommonIcvEC2Em(ptr noundef nonnull align 8 dereferenceable(16) %this1, i64 noundef %0)
  ret void
}

; Function Attrs: mustprogress nounwind uwtable
define linkonce_odr hidden void @_ZN4llvh15SmallVectorImplIcED2Ev(ptr noundef nonnull align 8 dereferenceable(16) %this) unnamed_addr #0 comdat align 2 {
entry:
  %this.addr.i = alloca ptr, align 8
  %this.addr = alloca ptr, align 8
  store ptr %this, ptr %this.addr, align 8
  %this1 = load ptr, ptr %this.addr, align 8
  %call = call noundef zeroext i1 @_ZNK4llvh25SmallVectorTemplateCommonIcvE7isSmallEv(ptr noundef nonnull align 8 dereferenceable(16) %this1)
  br i1 %call, label %if.end, label %if.then

if.then:                                          ; preds = %entry
  store ptr %this1, ptr %this.addr.i, align 8
  %this1.i = load ptr, ptr %this.addr.i, align 8
  %0 = load ptr, ptr %this1.i, align 8
  call void @free(ptr noundef %0) #9
  br label %if.end

if.end:                                           ; preds = %if.then, %entry
  ret void
}

; Function Attrs: mustprogress nounwind uwtable
define linkonce_odr hidden void @_ZN4llvh23SmallVectorTemplateBaseIcLb1EE13destroy_rangeEPcS2_(ptr noundef %0, ptr noundef %1) #0 comdat align 2 {
entry:
  %.addr = alloca ptr, align 8
  %.addr1 = alloca ptr, align 8
  store ptr %0, ptr %.addr, align 8
  store ptr %1, ptr %.addr1, align 8
  ret void
}

; Function Attrs: mustprogress nounwind uwtable
define linkonce_odr hidden noundef i64 @_ZNK4llvh15SmallVectorBase4sizeEv(ptr noundef nonnull align 8 dereferenceable(16) %this) #0 comdat align 2 {
entry:
  %this.addr = alloca ptr, align 8
  store ptr %this, ptr %this.addr, align 8
  %this1 = load ptr, ptr %this.addr, align 8
  %Size = getelementptr inbounds %"class.llvh::SmallVectorBase", ptr %this1, i32 0, i32 1
  %0 = load i32, ptr %Size, align 8
  %conv = zext i32 %0 to i64
  ret i64 %conv
}

; Function Attrs: mustprogress nounwind uwtable
define linkonce_odr hidden void @_ZN4llvh15SmallVectorImplIcEC2Ej(ptr noundef nonnull align 8 dereferenceable(16) %this, i32 noundef %N) unnamed_addr #0 comdat align 2 {
entry:
  %this.addr = alloca ptr, align 8
  %N.addr = alloca i32, align 4
  store ptr %this, ptr %this.addr, align 8
  store i32 %N, ptr %N.addr, align 4
  %this1 = load ptr, ptr %this.addr, align 8
  %0 = load i32, ptr %N.addr, align 4
  %conv = zext i32 %0 to i64
  call void @_ZN4llvh23SmallVectorTemplateBaseIcLb1EEC2Em(ptr noundef nonnull align 8 dereferenceable(16) %this1, i64 noundef %conv)
  ret void
}

; Function Attrs: mustprogress nounwind uwtable
define linkonce_odr hidden void @_ZN4llvh11SmallVectorIcLj128EED2Ev(ptr noundef nonnull align 8 dereferenceable(144) %this) unnamed_addr #0 comdat align 2 {
entry:
  %this.addr.i.i = alloca ptr, align 8
  %this.addr.i3 = alloca ptr, align 8
  %this.addr.i = alloca ptr, align 8
  %this.addr = alloca ptr, align 8
  store ptr %this, ptr %this.addr, align 8
  %this1 = load ptr, ptr %this.addr, align 8
  store ptr %this1, ptr %this.addr.i, align 8
  %this1.i = load ptr, ptr %this.addr.i, align 8
  %0 = load ptr, ptr %this1.i, align 8
  store ptr %this1, ptr %this.addr.i3, align 8
  %this1.i4 = load ptr, ptr %this.addr.i3, align 8
  store ptr %this1.i4, ptr %this.addr.i.i, align 8
  %this1.i.i = load ptr, ptr %this.addr.i.i, align 8
  %1 = load ptr, ptr %this1.i.i, align 8
  %call2.i = call noundef i64 @_ZNK4llvh15SmallVectorBase4sizeEv(ptr noundef nonnull align 8 dereferenceable(16) %this1.i4)
  %add.ptr.i = getelementptr inbounds i8, ptr %1, i64 %call2.i
  call void @_ZN4llvh23SmallVectorTemplateBaseIcLb1EE13destroy_rangeEPcS2_(ptr noundef %0, ptr noundef %add.ptr.i)
  call void @_ZN4llvh15SmallVectorImplIcED2Ev(ptr noundef nonnull align 8 dereferenceable(16) %this1) #9
  ret void
}

; Function Attrs: mustprogress nounwind uwtable
define linkonce_odr hidden void @_ZN4llvh11SmallVectorIcLj128EEC2Ev(ptr noundef nonnull align 8 dereferenceable(144) %this) unnamed_addr #0 comdat align 2 {
entry:
  %this.addr = alloca ptr, align 8
  store ptr %this, ptr %this.addr, align 8
  %this1 = load ptr, ptr %this.addr, align 8
  call void @_ZN4llvh15SmallVectorImplIcEC2Ej(ptr noundef nonnull align 8 dereferenceable(16) %this1, i32 noundef 128)
  ret void
}

; Function Attrs: mustprogress nounwind uwtable
define linkonce_odr hidden void @_ZN4llvh11SmallStringILj128EED2Ev(ptr noundef nonnull align 8 dereferenceable(144) %this) unnamed_addr #0 comdat align 2 {
entry:
  %this.addr = alloca ptr, align 8
  store ptr %this, ptr %this.addr, align 8
  %this1 = load ptr, ptr %this.addr, align 8
  call void @_ZN4llvh11SmallVectorIcLj128EED2Ev(ptr noundef nonnull align 8 dereferenceable(144) %this1) #9
  ret void
}

; Function Attrs: mustprogress nounwind uwtable
define linkonce_odr hidden { i32, ptr } @_ZN4llvh15make_error_codeENS_4errcE(i32 noundef %E) #0 comdat {
entry:
  %retval = alloca %"class.std::error_code", align 8
  %E.addr = alloca i32, align 4
  store i32 %E, ptr %E.addr, align 4
  %0 = load i32, ptr %E.addr, align 4
  %call = call noundef nonnull align 8 dereferenceable(8) ptr @_ZNSt3_V216generic_categoryEv() #13
  call void @_ZNSt10error_codeC2EiRKNSt3_V214error_categoryE(ptr noundef nonnull align 8 dereferenceable(16) %retval, i32 noundef %0, ptr noundef nonnull align 8 dereferenceable(8) %call) #9
  %1 = load { i32, ptr }, ptr %retval, align 8
  ret { i32, ptr } %1
}

; Function Attrs: mustprogress nounwind uwtable
define linkonce_odr void @_ZNSt10error_codeC2Ev(ptr noundef nonnull align 8 dereferenceable(16) %this) unnamed_addr #0 comdat align 2 {
entry:
  %this.addr = alloca ptr, align 8
  store ptr %this, ptr %this.addr, align 8
  %this1 = load ptr, ptr %this.addr, align 8
  %_M_value = getelementptr inbounds %"class.std::error_code", ptr %this1, i32 0, i32 0
  store i32 0, ptr %_M_value, align 8
  %_M_cat = getelementptr inbounds %"class.std::error_code", ptr %this1, i32 0, i32 1
  %call = call noundef nonnull align 8 dereferenceable(8) ptr @_ZNSt3_V215system_categoryEv() #13
  store ptr %call, ptr %_M_cat, align 8
  ret void
}

; Function Attrs: mustprogress nounwind uwtable
define linkonce_odr void @_ZNSt10error_codeC2EiRKNSt3_V214error_categoryE(ptr noundef nonnull align 8 dereferenceable(16) %this, i32 noundef %__v, ptr noundef nonnull align 8 dereferenceable(8) %__cat) unnamed_addr #0 comdat align 2 {
entry:
  %this.addr = alloca ptr, align 8
  %__v.addr = alloca i32, align 4
  %__cat.addr = alloca ptr, align 8
  store ptr %this, ptr %this.addr, align 8
  store i32 %__v, ptr %__v.addr, align 4
  store ptr %__cat, ptr %__cat.addr, align 8
  %this1 = load ptr, ptr %this.addr, align 8
  %_M_value = getelementptr inbounds %"class.std::error_code", ptr %this1, i32 0, i32 0
  %0 = load i32, ptr %__v.addr, align 4
  store i32 %0, ptr %_M_value, align 8
  %_M_cat = getelementptr inbounds %"class.std::error_code", ptr %this1, i32 0, i32 1
  %1 = load ptr, ptr %__cat.addr, align 8
  store ptr %1, ptr %_M_cat, align 8
  ret void
}

; Function Attrs: mustprogress nounwind uwtable
define linkonce_odr hidden noundef ptr @_ZNK4llvh9StringRef5beginEv(ptr noundef nonnull align 8 dereferenceable(16) %this) #0 comdat align 2 {
entry:
  %this.addr = alloca ptr, align 8
  store ptr %this, ptr %this.addr, align 8
  %this1 = load ptr, ptr %this.addr, align 8
  %Data = getelementptr inbounds %"class.llvh::StringRef", ptr %this1, i32 0, i32 0
  %0 = load ptr, ptr %Data, align 8
  ret ptr %0
}

; Function Attrs: mustprogress nounwind uwtable
define linkonce_odr hidden void @_ZN4llvh11SmallStringILj128EEC2Ev(ptr noundef nonnull align 8 dereferenceable(144) %this) unnamed_addr #0 comdat align 2 {
entry:
  %this.addr = alloca ptr, align 8
  store ptr %this, ptr %this.addr, align 8
  %this1 = load ptr, ptr %this.addr, align 8
  call void @_ZN4llvh11SmallVectorIcLj128EEC2Ev(ptr noundef nonnull align 8 dereferenceable(144) %this1)
  ret void
}

; Function Attrs: mustprogress nounwind uwtable
define hidden { i32, ptr } @_ZN4llvh3sys2fs6removeERKNS_5TwineEb(ptr noundef nonnull align 8 dereferenceable(18) %path, i1 noundef zeroext %IgnoreNonExisting) #0 {
entry:
  %retval = alloca %"class.std::error_code", align 8
  %path.addr = alloca ptr, align 8
  %IgnoreNonExisting.addr = alloca i8, align 1
  %path_storage = alloca %"class.llvh::SmallString.11", align 8
  %p = alloca %"class.llvh::StringRef", align 8
  %buf = alloca %struct.stat, align 8
  %cleanup.dest.slot = alloca i32, align 4
  store ptr %path, ptr %path.addr, align 8
  %frombool = zext i1 %IgnoreNonExisting to i8
  store i8 %frombool, ptr %IgnoreNonExisting.addr, align 1
  call void @_ZN4llvh11SmallStringILj128EEC2Ev(ptr noundef nonnull align 8 dereferenceable(144) %path_storage)
  %0 = load ptr, ptr %path.addr, align 8
  %call = call { ptr, i64 } @_ZNK4llvh5Twine25toNullTerminatedStringRefERNS_15SmallVectorImplIcEE(ptr noundef nonnull align 8 dereferenceable(18) %0, ptr noundef nonnull align 8 dereferenceable(16) %path_storage)
  %1 = getelementptr inbounds { ptr, i64 }, ptr %p, i32 0, i32 0
  %2 = extractvalue { ptr, i64 } %call, 0
  store ptr %2, ptr %1, align 8
  %3 = getelementptr inbounds { ptr, i64 }, ptr %p, i32 0, i32 1
  %4 = extractvalue { ptr, i64 } %call, 1
  store i64 %4, ptr %3, align 8
  %call1 = call noundef ptr @_ZNK4llvh9StringRef5beginEv(ptr noundef nonnull align 8 dereferenceable(16) %p)
  %call2 = call i32 @lstat(ptr noundef %call1, ptr noundef %buf) #9
  %cmp = icmp ne i32 %call2, 0
  br i1 %cmp, label %if.then, label %if.end8

if.then:                                          ; preds = %entry
  %call3 = call ptr @__errno_location() #13
  %5 = load i32, ptr %call3, align 4
  %cmp4 = icmp ne i32 %5, 2
  br i1 %cmp4, label %if.then5, label %lor.lhs.false

lor.lhs.false:                                    ; preds = %if.then
  %6 = load i8, ptr %IgnoreNonExisting.addr, align 1
  %tobool = trunc i8 %6 to i1
  br i1 %tobool, label %if.end, label %if.then5

if.then5:                                         ; preds = %lor.lhs.false, %if.then
  %call6 = call ptr @__errno_location() #13
  %7 = load i32, ptr %call6, align 4
  %call7 = call noundef nonnull align 8 dereferenceable(8) ptr @_ZNSt3_V216generic_categoryEv() #13
  call void @_ZNSt10error_codeC2EiRKNSt3_V214error_categoryE(ptr noundef nonnull align 8 dereferenceable(16) %retval, i32 noundef %7, ptr noundef nonnull align 8 dereferenceable(8) %call7) #9
  store i32 1, ptr %cleanup.dest.slot, align 4
  br label %cleanup

if.end:                                           ; preds = %lor.lhs.false
  call void @_ZNSt10error_codeC2Ev(ptr noundef nonnull align 8 dereferenceable(16) %retval) #9
  store i32 1, ptr %cleanup.dest.slot, align 4
  br label %cleanup

if.end8:                                          ; preds = %entry
  %st_mode = getelementptr inbounds %struct.stat, ptr %buf, i32 0, i32 3
  %8 = load i32, ptr %st_mode, align 8
  %and = and i32 %8, 61440
  %cmp9 = icmp eq i32 %and, 32768
  br i1 %cmp9, label %if.end19, label %land.lhs.true

land.lhs.true:                                    ; preds = %if.end8
  %st_mode10 = getelementptr inbounds %struct.stat, ptr %buf, i32 0, i32 3
  %9 = load i32, ptr %st_mode10, align 8
  %and11 = and i32 %9, 61440
  %cmp12 = icmp eq i32 %and11, 16384
  br i1 %cmp12, label %if.end19, label %land.lhs.true13

land.lhs.true13:                                  ; preds = %land.lhs.true
  %st_mode14 = getelementptr inbounds %struct.stat, ptr %buf, i32 0, i32 3
  %10 = load i32, ptr %st_mode14, align 8
  %and15 = and i32 %10, 61440
  %cmp16 = icmp eq i32 %and15, 40960
  br i1 %cmp16, label %if.end19, label %if.then17

if.then17:                                        ; preds = %land.lhs.true13
  %call18 = call { i32, ptr } @_ZN4llvh15make_error_codeENS_4errcE(i32 noundef 1)
  %11 = getelementptr inbounds { i32, ptr }, ptr %retval, i32 0, i32 0
  %12 = extractvalue { i32, ptr } %call18, 0
  store i32 %12, ptr %11, align 8
  %13 = getelementptr inbounds { i32, ptr }, ptr %retval, i32 0, i32 1
  %14 = extractvalue { i32, ptr } %call18, 1
  store ptr %14, ptr %13, align 8
  store i32 1, ptr %cleanup.dest.slot, align 4
  br label %cleanup

if.end19:                                         ; preds = %land.lhs.true13, %land.lhs.true, %if.end8
  %call20 = call noundef ptr @_ZNK4llvh9StringRef5beginEv(ptr noundef nonnull align 8 dereferenceable(16) %p)
  %call21 = call i32 @remove(ptr noundef %call20) #9
  %cmp22 = icmp eq i32 %call21, -1
  br i1 %cmp22, label %if.then23, label %if.end32

if.then23:                                        ; preds = %if.end19
  %call24 = call ptr @__errno_location() #13
  %15 = load i32, ptr %call24, align 4
  %cmp25 = icmp ne i32 %15, 2
  br i1 %cmp25, label %if.then28, label %lor.lhs.false26

lor.lhs.false26:                                  ; preds = %if.then23
  %16 = load i8, ptr %IgnoreNonExisting.addr, align 1
  %tobool27 = trunc i8 %16 to i1
  br i1 %tobool27, label %if.end31, label %if.then28

if.then28:                                        ; preds = %lor.lhs.false26, %if.then23
  %call29 = call ptr @__errno_location() #13
  %17 = load i32, ptr %call29, align 4
  %call30 = call noundef nonnull align 8 dereferenceable(8) ptr @_ZNSt3_V216generic_categoryEv() #13
  call void @_ZNSt10error_codeC2EiRKNSt3_V214error_categoryE(ptr noundef nonnull align 8 dereferenceable(16) %retval, i32 noundef %17, ptr noundef nonnull align 8 dereferenceable(8) %call30) #9
  store i32 1, ptr %cleanup.dest.slot, align 4
  br label %cleanup

if.end31:                                         ; preds = %lor.lhs.false26
  br label %if.end32

if.end32:                                         ; preds = %if.end31, %if.end19
  call void @_ZNSt10error_codeC2Ev(ptr noundef nonnull align 8 dereferenceable(16) %retval) #9
  store i32 1, ptr %cleanup.dest.slot, align 4
  br label %cleanup

cleanup:                                          ; preds = %if.end32, %if.then28, %if.then17, %if.end, %if.then5
  call void @_ZN4llvh11SmallStringILj128EED2Ev(ptr noundef nonnull align 8 dereferenceable(144) %path_storage) #9
  %18 = load { i32, ptr }, ptr %retval, align 8
  ret { i32, ptr } %18
}