; Function Attrs: mustprogress nounwind uwtable
define hidden { i32, ptr } @_ZN4llvh3sys2fs6removeERKNS_5TwineEb(ptr noundef nonnull align 8 dereferenceable(18) %path, i1 noundef zeroext %IgnoreNonExisting) local_unnamed_addr #0 {
entry:
  %path_storage = alloca %"class.llvh::SmallString.11", align 8
  %buf = alloca %struct.stat, align 8
  %add.ptr.i.i.i.i.i.i = getelementptr inbounds i8, ptr %path_storage, i64 16
  store ptr %add.ptr.i.i.i.i.i.i, ptr %path_storage, align 8
  %Size.i.i.i.i.i.i = getelementptr inbounds i8, ptr %path_storage, i64 8
  store i32 0, ptr %Size.i.i.i.i.i.i, align 8
  %Capacity2.i.i.i.i.i.i = getelementptr inbounds i8, ptr %path_storage, i64 12
  store i32 128, ptr %Capacity2.i.i.i.i.i.i, align 4
  %call = call { ptr, i64 } @_ZNK4llvh5Twine25toNullTerminatedStringRefERNS_15SmallVectorImplIcEE(ptr noundef nonnull align 8 dereferenceable(18) %path, ptr noundef nonnull align 8 dereferenceable(16) %path_storage) #29
  %0 = extractvalue { ptr, i64 } %call, 0
  %call2 = call i32 @lstat(ptr noundef %0, ptr noundef nonnull %buf) #29
  %cmp.not = icmp eq i32 %call2, 0
  br i1 %cmp.not, label %if.end8, label %if.then

if.then:                                          ; preds = %entry
  %call3 = tail call ptr @__errno_location() #30
  %1 = load i32, ptr %call3, align 4
  %cmp4.not = icmp eq i32 %1, 2
  %brmerge.not = and i1 %cmp4.not, %IgnoreNonExisting
  br i1 %brmerge.not, label %if.end, label %if.then5

if.then5:                                         ; preds = %if.then
  %call7 = tail call noundef nonnull align 8 dereferenceable(8) ptr @_ZNSt3_V216generic_categoryEv() #30
  br label %cleanup

if.end:                                           ; preds = %if.then
  %call.i = tail call noundef nonnull align 8 dereferenceable(8) ptr @_ZNSt3_V215system_categoryEv() #30
  br label %cleanup

if.end8:                                          ; preds = %entry
  %st_mode = getelementptr inbounds i8, ptr %buf, i64 24
  %2 = load i32, ptr %st_mode, align 8
  %3 = trunc i32 %2 to i16
  %trunc = and i16 %3, -4096
  switch i16 %trunc, label %if.then17 [
    i16 -32768, label %if.end19
    i16 16384, label %if.end19
    i16 -24576, label %if.end19
  ]

if.then17:                                        ; preds = %if.end8
  %call.i5 = tail call noundef nonnull align 8 dereferenceable(8) ptr @_ZNSt3_V216generic_categoryEv() #30
  br label %cleanup

if.end19:                                         ; preds = %if.end8, %if.end8, %if.end8
  %call21 = call i32 @remove(ptr noundef %0) #29
  %cmp22 = icmp eq i32 %call21, -1
  br i1 %cmp22, label %if.then23, label %if.end32

if.then23:                                        ; preds = %if.end19
  %call24 = tail call ptr @__errno_location() #30
  %4 = load i32, ptr %call24, align 4
  %cmp25.not = icmp eq i32 %4, 2
  %brmerge3.not = and i1 %cmp25.not, %IgnoreNonExisting
  br i1 %brmerge3.not, label %if.end32, label %if.then28

if.then28:                                        ; preds = %if.then23
  %call30 = tail call noundef nonnull align 8 dereferenceable(8) ptr @_ZNSt3_V216generic_categoryEv() #30
  br label %cleanup

if.end32:                                         ; preds = %if.then23, %if.end19
  %call.i8 = tail call noundef nonnull align 8 dereferenceable(8) ptr @_ZNSt3_V215system_categoryEv() #30
  br label %cleanup

cleanup:                                          ; preds = %if.end32, %if.then28, %if.then17, %if.end, %if.then5
  %retval.sroa.0.0 = phi i32 [ 1, %if.then17 ], [ %4, %if.then28 ], [ 0, %if.end32 ], [ %1, %if.then5 ], [ 0, %if.end ]
  %retval.sroa.6.0 = phi ptr [ %call.i5, %if.then17 ], [ %call30, %if.then28 ], [ %call.i8, %if.end32 ], [ %call7, %if.then5 ], [ %call.i, %if.end ]
  %5 = load ptr, ptr %path_storage, align 8
  %cmp.i.i.i.i = icmp eq ptr %5, %add.ptr.i.i.i.i.i.i
  br i1 %cmp.i.i.i.i, label %_ZN4llvh11SmallStringILj128EED2Ev.exit, label %if.then.i.i.i

if.then.i.i.i:                                    ; preds = %cleanup
  call void @free(ptr noundef %5) #29
  br label %_ZN4llvh11SmallStringILj128EED2Ev.exit

_ZN4llvh11SmallStringILj128EED2Ev.exit:           ; preds = %cleanup, %if.then.i.i.i
  %.fca.0.insert = insertvalue { i32, ptr } poison, i32 %retval.sroa.0.0, 0
  %.fca.1.insert = insertvalue { i32, ptr } %.fca.0.insert, ptr %retval.sroa.6.0, 1
  ret { i32, ptr } %.fca.1.insert
}